; Function Attrs: mustprogress uwtable
define internal void @_ZL20cmSourceFileSetName2PvPKcS1_S1_i(ptr noundef %0, ptr noundef %1, ptr noundef %2, ptr noundef %3, i32 noundef %4) #6 personality ptr @__gxx_personality_v0 {
  %6 = alloca %"class.std::__cxx11::basic_string", align 8
  %7 = alloca %"class.std::allocator", align 1
  %8 = alloca %"class.std::__cxx11::basic_string", align 8
  %9 = alloca %"class.std::allocator", align 1
  %10 = alloca %"class.std::__cxx11::basic_string", align 8
  %11 = alloca %"class.std::__cxx11::basic_string", align 8
  %12 = load ptr, ptr %0, align 8
  %.not = icmp eq ptr %12, null
  br i1 %.not, label %13, label %46

13:                                               ; preds = %5
  %.not18 = icmp eq i32 %4, 0
  br i1 %.not18, label %28, label %14

14:                                               ; preds = %13
  %15 = getelementptr inbounds i8, ptr %0, i64 128
  call void @_ZNSaIcEC1Ev(ptr noundef nonnull align 1 dereferenceable(1) %7) #30
  %16 = invoke noundef ptr @_ZNSt7__cxx1112basic_stringIcSt11char_traitsIcESaIcEE13_M_local_dataEv(ptr noundef nonnull align 8 dereferenceable(32) %6)
          to label %.noexc unwind label %22

.noexc:                                           ; preds = %14
  invoke void @_ZNSt7__cxx1112basic_stringIcSt11char_traitsIcESaIcEE12_Alloc_hiderC1EPcRKS3_(ptr noundef nonnull align 8 dereferenceable(8) %6, ptr noundef %16, ptr noundef nonnull align 1 dereferenceable(1) %7)
          to label %.noexc23 unwind label %22

.noexc23:                                         ; preds = %.noexc
  invoke void @_ZNSt7__cxx1112basic_stringIcSt11char_traitsIcESaIcEE12_M_constructIPKcEEvT_S8_St20forward_iterator_tag(ptr noundef nonnull align 8 dereferenceable(32) %6, ptr noundef nonnull @.str.35, ptr noundef nonnull getelementptr inbounds ([17 x i8], ptr @.str.35, i64 0, i64 16))
          to label %_ZNSt7__cxx1112basic_stringIcSt11char_traitsIcESaIcEEC2IS3_EEPKcRKS3_.exit unwind label %17

17:                                               ; preds = %.noexc23
  %18 = landingpad { ptr, i32 }
          cleanup
  call void @_ZNSaIcED2Ev(ptr noundef nonnull align 1 dereferenceable(1) %6) #30
  br label %.body

_ZNSt7__cxx1112basic_stringIcSt11char_traitsIcESaIcEEC2IS3_EEPKcRKS3_.exit: ; preds = %.noexc23
  call void @_ZNSaIcEC1Ev(ptr noundef nonnull align 1 dereferenceable(1) %9) #30
  %19 = invoke noundef ptr @_ZNSt7__cxx1112basic_stringIcSt11char_traitsIcESaIcEE13_M_local_dataEv(ptr noundef nonnull align 8 dereferenceable(32) %8)
          to label %.noexc24 unwind label %24

.noexc24:                                         ; preds = %_ZNSt7__cxx1112basic_stringIcSt11char_traitsIcESaIcEEC2IS3_EEPKcRKS3_.exit
  invoke void @_ZNSt7__cxx1112basic_stringIcSt11char_traitsIcESaIcEE12_Alloc_hiderC1EPcRKS3_(ptr noundef nonnull align 8 dereferenceable(8) %8, ptr noundef %19, ptr noundef nonnull align 1 dereferenceable(1) %9)
          to label %.noexc25 unwind label %24

.noexc25:                                         ; preds = %.noexc24
  invoke void @_ZNSt7__cxx1112basic_stringIcSt11char_traitsIcESaIcEE12_M_constructIPKcEEvT_S8_St20forward_iterator_tag(ptr noundef nonnull align 8 dereferenceable(32) %8, ptr noundef nonnull @.str.36, ptr noundef nonnull getelementptr inbounds ([2 x i8], ptr @.str.36, i64 0, i64 1))
          to label %_ZNSt7__cxx1112basic_stringIcSt11char_traitsIcESaIcEEC2IS3_EEPKcRKS3_.exit28 unwind label %20

20:                                               ; preds = %.noexc25
  %21 = landingpad { ptr, i32 }
          cleanup
  call void @_ZNSaIcED2Ev(ptr noundef nonnull align 1 dereferenceable(1) %8) #30
  br label %.body26

_ZNSt7__cxx1112basic_stringIcSt11char_traitsIcESaIcEEC2IS3_EEPKcRKS3_.exit28: ; preds = %.noexc25
  invoke void @_ZN13cmPropertyMap11SetPropertyERKNSt7__cxx1112basic_stringIcSt11char_traitsIcESaIcEEE7cmValue(ptr noundef nonnull align 8 dereferenceable(56) %15, ptr noundef nonnull align 8 dereferenceable(32) %6, ptr nonnull %8)
          to label %_ZN13cmPropertyMap11SetPropertyERKNSt7__cxx1112basic_stringIcSt11char_traitsIcESaIcEEES7_.exit unwind label %26

_ZN13cmPropertyMap11SetPropertyERKNSt7__cxx1112basic_stringIcSt11char_traitsIcESaIcEEES7_.exit: ; preds = %_ZNSt7__cxx1112basic_stringIcSt11char_traitsIcESaIcEEC2IS3_EEPKcRKS3_.exit28
  call void @_ZNSt7__cxx1112basic_stringIcSt11char_traitsIcESaIcEED1Ev(ptr noundef nonnull align 8 dereferenceable(32) %8) #30
  call void @_ZNSaIcED1Ev(ptr noundef nonnull align 1 dereferenceable(1) %9) #30
  call void @_ZNSt7__cxx1112basic_stringIcSt11char_traitsIcESaIcEED1Ev(ptr noundef nonnull align 8 dereferenceable(32) %6) #30
  call void @_ZNSaIcED1Ev(ptr noundef nonnull align 1 dereferenceable(1) %7) #30
  br label %28

22:                                               ; preds = %.noexc, %14
  %23 = landingpad { ptr, i32 }
          cleanup
  br label %.body

24:                                               ; preds = %.noexc24, %_ZNSt7__cxx1112basic_stringIcSt11char_traitsIcESaIcEEC2IS3_EEPKcRKS3_.exit
  %25 = landingpad { ptr, i32 }
          cleanup
  br label %.body26

26:                                               ; preds = %_ZNSt7__cxx1112basic_stringIcSt11char_traitsIcESaIcEEC2IS3_EEPKcRKS3_.exit28
  %27 = landingpad { ptr, i32 }
          cleanup
  call void @_ZNSt7__cxx1112basic_stringIcSt11char_traitsIcESaIcEED1Ev(ptr noundef nonnull align 8 dereferenceable(32) %8) #30
  br label %.body26

.body26:                                          ; preds = %24, %20, %26
  %.pn = phi { ptr, i32 } [ %27, %26 ], [ %25, %24 ], [ %21, %20 ]
  call void @_ZNSaIcED1Ev(ptr noundef nonnull align 1 dereferenceable(1) %9) #30
  call void @_ZNSt7__cxx1112basic_stringIcSt11char_traitsIcESaIcEED1Ev(ptr noundef nonnull align 8 dereferenceable(32) %6) #30
  br label %.body

.body:                                            ; preds = %22, %17, %.body26
  %.pn.pn = phi { ptr, i32 } [ %.pn, %.body26 ], [ %23, %22 ], [ %18, %17 ]
  call void @_ZNSaIcED1Ev(ptr noundef nonnull align 1 dereferenceable(1) %7) #30
  br label %47

28:                                               ; preds = %_ZN13cmPropertyMap11SetPropertyERKNSt7__cxx1112basic_stringIcSt11char_traitsIcESaIcEEES7_.exit, %13
  %29 = getelementptr inbounds i8, ptr %0, i64 8
  %30 = call noundef nonnull align 8 dereferenceable(32) ptr @_ZNSt7__cxx1112basic_stringIcSt11char_traitsIcESaIcEEaSEPKc(ptr noundef nonnull align 8 dereferenceable(32) %29, ptr noundef %1)
  call void @_ZNSt7__cxx1112basic_stringIcSt11char_traitsIcESaIcEEC1ERKS4_(ptr noundef nonnull align 8 dereferenceable(32) %10, ptr noundef nonnull align 8 dereferenceable(32) %29)
  %31 = icmp eq ptr %3, null
  br i1 %31, label %_Z10cmNonemptyPKc.exit.thread, label %_Z10cmNonemptyPKc.exit

_Z10cmNonemptyPKc.exit:                           ; preds = %28
  %32 = load i8, ptr %3, align 1
  %.not30 = icmp eq i8 %32, 0
  br i1 %.not30, label %_Z10cmNonemptyPKc.exit.thread, label %33

33:                                               ; preds = %_Z10cmNonemptyPKc.exit
  %34 = invoke noundef nonnull align 8 dereferenceable(32) ptr @_ZNSt7__cxx1112basic_stringIcSt11char_traitsIcESaIcEEpLEPKc(ptr noundef nonnull align 8 dereferenceable(32) %10, ptr noundef nonnull @.str.37)
          to label %35 unwind label %37

35:                                               ; preds = %33
  %36 = invoke noundef nonnull align 8 dereferenceable(32) ptr @_ZNSt7__cxx1112basic_stringIcSt11char_traitsIcESaIcEEpLEPKc(ptr noundef nonnull align 8 dereferenceable(32) %10, ptr noundef nonnull %3)
          to label %_Z10cmNonemptyPKc.exit.thread unwind label %37

37:                                               ; preds = %42, %39, %_Z10cmNonemptyPKc.exit.thread, %35, %33
  %38 = landingpad { ptr, i32 }
          cleanup
  call void @_ZNSt7__cxx1112basic_stringIcSt11char_traitsIcESaIcEED1Ev(ptr noundef nonnull align 8 dereferenceable(32) %10) #30
  br label %47

_Z10cmNonemptyPKc.exit.thread:                    ; preds = %28, %35, %_Z10cmNonemptyPKc.exit
  invoke void @_ZN5cmsys11SystemTools16CollapseFullPathERKNSt7__cxx1112basic_stringIcSt11char_traitsIcESaIcEEEPKc(ptr dead_on_unwind nonnull writable sret(%"class.std::__cxx11::basic_string") align 8 %11, ptr noundef nonnull align 8 dereferenceable(32) %10, ptr noundef %2)
          to label %39 unwind label %37

39:                                               ; preds = %_Z10cmNonemptyPKc.exit.thread
  %40 = getelementptr inbounds i8, ptr %0, i64 72
  %41 = call noundef nonnull align 8 dereferenceable(32) ptr @_ZNSt7__cxx1112basic_stringIcSt11char_traitsIcESaIcEEaSEOS4_(ptr noundef nonnull align 8 dereferenceable(32) %40, ptr noundef nonnull align 8 dereferenceable(32) %11) #30
  call void @_ZNSt7__cxx1112basic_stringIcSt11char_traitsIcESaIcEED1Ev(ptr noundef nonnull align 8 dereferenceable(32) %11) #30
  invoke void @_ZN5cmsys11SystemTools20ConvertToUnixSlashesERNSt7__cxx1112basic_stringIcSt11char_traitsIcESaIcEEE(ptr noundef nonnull align 8 dereferenceable(32) %40)
          to label %42 unwind label %37

42:                                               ; preds = %39
  %43 = getelementptr inbounds i8, ptr %0, i64 40
  %44 = invoke noundef nonnull align 8 dereferenceable(32) ptr @_ZNSt7__cxx1112basic_stringIcSt11char_traitsIcESaIcEEaSEPKc(ptr noundef nonnull align 8 dereferenceable(32) %43, ptr noundef %3)
          to label %45 unwind label %37

45:                                               ; preds = %42
  call void @_ZNSt7__cxx1112basic_stringIcSt11char_traitsIcESaIcEED1Ev(ptr noundef nonnull align 8 dereferenceable(32) %10) #30
  br label %46

46:                                               ; preds = %5, %45
  ret void

47:                                               ; preds = %37, %.body
  %.pn21 = phi { ptr, i32 } [ %38, %37 ], [ %.pn.pn, %.body ]
  resume { ptr, i32 } %.pn21
}